; Function Attrs: nounwind uwtable
define noalias nonnull ptr @l_Lean_Widget_instInhabitedStrictOrLazy___rarg(ptr noundef %0, ptr readnone captures(none) %1) #0 {
  tail call void @lean_inc_heartbeat() #7
  %3 = tail call noalias ptr @mi_malloc_small(i64 noundef 16) #7
  %4 = icmp eq ptr %3, null
  br i1 %4, label %5, label %lean_alloc_ctor.exit

5:                                                ; preds = %2
  tail call void @lean_internal_panic_out_of_memory() #8
  unreachable

lean_alloc_ctor.exit:                             ; preds = %2
  %6 = getelementptr inbounds nuw i8, ptr %3, i64 4
  store i32 1, ptr %3, align 4, !tbaa !4
  store i32 65552, ptr %6, align 4
  %7 = getelementptr inbounds nuw i8, ptr %3, i64 8
  store ptr %0, ptr %7, align 8, !tbaa !9
  ret ptr %3
}